target datalayout = "e-m:e-p270:32:32-p271:32:32-p272:64:64-i64:64-i128:128-f80:128-n8:16:32:64-S128"
target triple = "x86_64-pc-linux-gnu"

%struct.Gli_Man_t_ = type { ptr, ptr, ptr, ptr, ptr, i32, i32, i32, i32, i32, ptr, ptr }
%struct.Gli_Obj_t_ = type { i32, i32, ptr, i32, %union.anon, %union.anon.0, [0 x i32] }
%union.anon = type { i32 }
%union.anon.0 = type { i32 }

; Function Attrs: inlinehint nounwind uwtable
define internal i32 @Gli_ObjSize(ptr noundef %0) #3 {
  %2 = alloca ptr, align 8
  store ptr %0, ptr %2, align 8, !tbaa !27
  %3 = load ptr, ptr %2, align 8, !tbaa !27
  %4 = load i32, ptr %3, align 8
  %5 = lshr i32 %4, 4
  %6 = and i32 %5, 7
  %7 = zext i32 %6 to i64
  %8 = add i64 8, %7
  %9 = load ptr, ptr %2, align 8, !tbaa !27
  %10 = load i32, ptr %9, align 8
  %11 = lshr i32 %10, 7
  %12 = zext i32 %11 to i64
  %13 = add i64 %8, %12
  %14 = trunc i64 %13 to i32
  ret i32 %14
}

; Function Attrs: inlinehint nounwind uwtable
define internal ptr @Gli_ManObj(ptr noundef %0, i32 noundef %1) #3 {
  %3 = alloca ptr, align 8
  %4 = alloca i32, align 4
  store ptr %0, ptr %3, align 8, !tbaa !7
  store i32 %1, ptr %4, align 4, !tbaa !3
  %5 = load ptr, ptr %3, align 8, !tbaa !7
  %6 = getelementptr inbounds nuw %struct.Gli_Man_t_, ptr %5, i32 0, i32 10
  %7 = load ptr, ptr %6, align 8, !tbaa !20
  %8 = load i32, ptr %4, align 4, !tbaa !3
  %9 = sext i32 %8 to i64
  %10 = getelementptr inbounds i32, ptr %7, i64 %9
  ret ptr %10
}

; Function Attrs: nounwind uwtable
define ptr @Gli_ObjAlloc(ptr noundef %0, i32 noundef %1, i32 noundef %2) #0 {
  %4 = alloca ptr, align 8
  %5 = alloca i32, align 4
  %6 = alloca i32, align 4
  %7 = alloca ptr, align 8
  store ptr %0, ptr %4, align 8, !tbaa !7
  store i32 %1, ptr %5, align 4, !tbaa !3
  store i32 %2, ptr %6, align 4, !tbaa !3
  call void @llvm.lifetime.start.p0(i64 8, ptr %7) #10
  %8 = load ptr, ptr %4, align 8, !tbaa !7
  %9 = load ptr, ptr %4, align 8, !tbaa !7
  %10 = getelementptr inbounds nuw %struct.Gli_Man_t_, ptr %9, i32 0, i32 8
  %11 = load i32, ptr %10, align 4, !tbaa !38
  %12 = call ptr @Gli_ManObj(ptr noundef %8, i32 noundef %11)
  store ptr %12, ptr %7, align 8, !tbaa !27
  %13 = load ptr, ptr %4, align 8, !tbaa !7
  %14 = getelementptr inbounds nuw %struct.Gli_Man_t_, ptr %13, i32 0, i32 8
  %15 = load i32, ptr %14, align 4, !tbaa !38
  %16 = load ptr, ptr %7, align 8, !tbaa !27
  %17 = getelementptr inbounds nuw %struct.Gli_Obj_t_, ptr %16, i32 0, i32 1
  store i32 %15, ptr %17, align 4, !tbaa !29
  %18 = load i32, ptr %5, align 4, !tbaa !3
  %19 = load ptr, ptr %7, align 8, !tbaa !27
  %20 = load i32, ptr %19, align 8
  %21 = and i32 %18, 7
  %22 = shl i32 %21, 4
  %23 = and i32 %20, -113
  %24 = or i32 %23, %22
  store i32 %24, ptr %19, align 8
  %25 = load i32, ptr %6, align 4, !tbaa !3
  %26 = load ptr, ptr %7, align 8, !tbaa !27
  %27 = load i32, ptr %26, align 8
  %28 = and i32 %25, 33554431
  %29 = shl i32 %28, 7
  %30 = and i32 %27, 127
  %31 = or i32 %30, %29
  store i32 %31, ptr %26, align 8
  %32 = load ptr, ptr %7, align 8, !tbaa !27
  %33 = call i32 @Gli_ObjSize(ptr noundef %32)
  %34 = load ptr, ptr %4, align 8, !tbaa !7
  %35 = getelementptr inbounds nuw %struct.Gli_Man_t_, ptr %34, i32 0, i32 8
  %36 = load i32, ptr %35, align 4, !tbaa !38
  %37 = add nsw i32 %36, %33
  store i32 %37, ptr %35, align 4, !tbaa !38
  %38 = load ptr, ptr %4, align 8, !tbaa !7
  %39 = getelementptr inbounds nuw %struct.Gli_Man_t_, ptr %38, i32 0, i32 5
  %40 = load i32, ptr %39, align 8, !tbaa !39
  %41 = add nsw i32 %40, 1
  store i32 %41, ptr %39, align 8, !tbaa !39
  %42 = load ptr, ptr %7, align 8, !tbaa !27
  call void @llvm.lifetime.end.p0(i64 8, ptr %7) #10
  ret ptr %42
}