; Function Attrs: mustprogress nofree norecurse nosync nounwind willreturn memory(readwrite, inaccessiblemem: none) uwtable
define noundef ptr @Gli_ObjAlloc(ptr noundef captures(none) %0, i32 noundef %1, i32 noundef %2) local_unnamed_addr #9 {
  %4 = getelementptr inbounds nuw i8, ptr %0, i64 52
  %5 = load i32, ptr %4, align 4, !tbaa !33
  %6 = getelementptr i8, ptr %0, i64 64
  %.val = load ptr, ptr %6, align 8, !tbaa !21
  %7 = sext i32 %5 to i64
  %8 = getelementptr inbounds i32, ptr %.val, i64 %7
  %9 = getelementptr inbounds nuw i8, ptr %8, i64 4
  store i32 %5, ptr %9, align 4, !tbaa !23
  %10 = load i32, ptr %8, align 8
  %11 = shl i32 %1, 4
  %12 = and i32 %10, 15
  %13 = shl i32 %2, 7
  %.masked = and i32 %11, 112
  %14 = or disjoint i32 %.masked, %12
  %15 = or disjoint i32 %14, %13
  store i32 %15, ptr %8, align 8
  %16 = and i32 %1, 7
  %17 = and i32 %2, 33554431
  %18 = load i32, ptr %4, align 4, !tbaa !33
  %19 = or disjoint i32 %16, 8
  %narrow.i = add nuw nsw i32 %19, %17
  %20 = add nsw i32 %narrow.i, %18
  store i32 %20, ptr %4, align 4, !tbaa !33
  %21 = getelementptr inbounds nuw i8, ptr %0, i64 40
  %22 = load i32, ptr %21, align 8, !tbaa !34
  %23 = add nsw i32 %22, 1
  store i32 %23, ptr %21, align 8, !tbaa !34
  ret ptr %8
}